target datalayout = "e-m:e-p270:32:32-p271:32:32-p272:64:64-i64:64-i128:128-f80:128-n8:16:32:64-S128"
target triple = "x86_64-pc-linux-gnu"

%struct.H5T_vlen_alloc_info_t = type { ptr, ptr, ptr, ptr }
%struct.hvl_t = type { i64, ptr }
%struct.H5_user_cb_state_t = type { %struct.H5E_user_cb_state_t }
%struct.H5E_user_cb_state_t = type { i32, %union.anon.12, ptr }
%union.anon.12 = type { ptr }

@H5_libterm_g = external global i8, align 1
@.str = private unnamed_addr constant [101 x i8] c"generated/home/dtcxzyw/WorkSpace/Projects/compilers/llvm-opt-benchmark/bench/hdf5/hdf5/src/H5Tvlen.c\00", align 1
@H5T_init_g = external global i8, align 1
@H5E_CANTSET_g = external global i64, align 8
@H5E_DATATYPE_g = external global i64, align 8
@H5E_CANTALLOC_g = external global i64, align 8
@__func__.H5T__vlen_mem_seq_write = private unnamed_addr constant [24 x i8] c"H5T__vlen_mem_seq_write\00", align 1
@H5E_LIB_g = external global i64, align 8
@.str.21 = private unnamed_addr constant [37 x i8] c"preparation for user callback failed\00", align 1
@H5E_CANTRESTORE_g = external global i64, align 8
@.str.22 = private unnamed_addr constant [57 x i8] c"application memory allocation routine failed for VL data\00", align 1
@.str.23 = private unnamed_addr constant [37 x i8] c"memory allocation failed for VL data\00", align 1

; Function Attrs: nounwind uwtable
define internal i32 @H5T__vlen_mem_seq_write(ptr noundef %0, ptr noundef %1, ptr noundef %2, ptr noundef %3, ptr noundef %4, i64 noundef %5, i64 noundef %6) #0 {
  %8 = alloca i32, align 4
  %9 = alloca ptr, align 8
  %10 = alloca ptr, align 8
  %11 = alloca ptr, align 8
  %12 = alloca ptr, align 8
  %13 = alloca ptr, align 8
  %14 = alloca i64, align 8
  %15 = alloca i64, align 8
  %16 = alloca %struct.hvl_t, align 8
  %17 = alloca i32, align 4
  %18 = alloca i8, align 1
  %19 = alloca i64, align 8
  %20 = alloca %struct.H5_user_cb_state_t, align 8
  %21 = alloca i32, align 4
  store ptr %0, ptr %9, align 8, !tbaa !30
  store ptr %1, ptr %10, align 8, !tbaa !38
  store ptr %2, ptr %11, align 8, !tbaa !38
  store ptr %3, ptr %12, align 8, !tbaa !38
  store ptr %4, ptr %13, align 8, !tbaa !38
  store i64 %5, ptr %14, align 8, !tbaa !3
  store i64 %6, ptr %15, align 8, !tbaa !3
  call void @llvm.lifetime.start.p0(i64 16, ptr %16) #9
  call void @llvm.lifetime.start.p0(i64 4, ptr %17) #9
  store i32 0, ptr %17, align 4, !tbaa !31
  call void @llvm.lifetime.start.p0(i64 1, ptr %18) #9
  store i8 0, ptr %18, align 1, !tbaa !10
  %22 = load i8, ptr @H5T_init_g, align 1, !tbaa !10, !range !12, !noundef !13
  %23 = trunc i8 %22 to i1
  br i1 %23, label %28, label %24

24:                                               ; preds = %7
  %25 = load i8, ptr @H5_libterm_g, align 1, !tbaa !10, !range !12, !noundef !13
  %26 = trunc i8 %25 to i1
  %27 = xor i1 %26, true
  br label %28

28:                                               ; preds = %24, %7
  %29 = phi i1 [ true, %7 ], [ %27, %24 ]
  %30 = xor i1 %29, true
  %31 = xor i1 %30, true
  %32 = zext i1 %31 to i32
  %33 = sext i32 %32 to i64
  %34 = call i64 @llvm.expect.i64(i64 %33, i64 1)
  %35 = icmp ne i64 %34, 0
  br i1 %35, label %36, label %167

36:                                               ; preds = %28
  %37 = load i64, ptr %14, align 8, !tbaa !3
  %38 = icmp ne i64 %37, 0
  br i1 %38, label %39, label %160

39:                                               ; preds = %36
  call void @llvm.lifetime.start.p0(i64 8, ptr %19) #9
  %40 = load i64, ptr %14, align 8, !tbaa !3
  %41 = load i64, ptr %15, align 8, !tbaa !3
  %42 = mul i64 %40, %41
  store i64 %42, ptr %19, align 8, !tbaa !3
  %43 = load ptr, ptr %10, align 8, !tbaa !38
  %44 = getelementptr inbounds nuw %struct.H5T_vlen_alloc_info_t, ptr %43, i32 0, i32 0
  %45 = load ptr, ptr %44, align 8, !tbaa !58
  %46 = icmp ne ptr %45, null
  br i1 %46, label %47, label %127

47:                                               ; preds = %39
  call void @llvm.lifetime.start.p0(i64 24, ptr %20) #9
  %48 = call i32 @H5_user_cb_prepare(ptr noundef %20)
  %49 = icmp slt i32 %48, 0
  br i1 %49, label %50, label %69

50:                                               ; preds = %47
  br label %51

51:                                               ; preds = %50
  br label %52

52:                                               ; preds = %51
  br label %53

53:                                               ; preds = %52
  %54 = load i64, ptr @H5E_LIB_g, align 8, !tbaa !3
  %55 = load i64, ptr @H5E_CANTSET_g, align 8, !tbaa !3
  %56 = call i32 (ptr, ptr, i32, i64, i64, ptr, ...) @H5E_printf_stack(ptr noundef @.str, ptr noundef @__func__.H5T__vlen_mem_seq_write, i32 noundef 504, i64 noundef %54, i64 noundef %55, ptr noundef @.str.21)
  br label %57

57:                                               ; preds = %53
  br label %58

58:                                               ; preds = %57
  store i8 1, ptr %18, align 1, !tbaa !10
  %59 = load i8, ptr %18, align 1, !tbaa !10, !range !12, !noundef !13
  %60 = trunc i8 %59 to i1
  %61 = zext i1 %60 to i8
  store i8 %61, ptr %18, align 1, !tbaa !10
  br label %62

62:                                               ; preds = %58
  br label %63

63:                                               ; preds = %62
  br label %64

64:                                               ; preds = %63
  store i32 -1, ptr %17, align 4, !tbaa !31
  store i32 10, ptr %21, align 4
  br label %101

65:                                               ; No predecessors!
  br label %66

66:                                               ; preds = %65
  br label %67

67:                                               ; preds = %66
  br label %68

68:                                               ; preds = %67
  br label %69

69:                                               ; preds = %68, %47
  %70 = load ptr, ptr %10, align 8, !tbaa !38
  %71 = getelementptr inbounds nuw %struct.H5T_vlen_alloc_info_t, ptr %70, i32 0, i32 0
  %72 = load ptr, ptr %71, align 8, !tbaa !58
  %73 = load i64, ptr %19, align 8, !tbaa !3
  %74 = load ptr, ptr %10, align 8, !tbaa !38
  %75 = getelementptr inbounds nuw %struct.H5T_vlen_alloc_info_t, ptr %74, i32 0, i32 1
  %76 = load ptr, ptr %75, align 8, !tbaa !59
  %77 = call ptr %72(i64 noundef %73, ptr noundef %76)
  %78 = getelementptr inbounds nuw %struct.hvl_t, ptr %16, i32 0, i32 1
  store ptr %77, ptr %78, align 8, !tbaa !51
  %79 = call i32 @H5_user_cb_restore(ptr noundef %20)
  %80 = icmp slt i32 %79, 0
  br i1 %80, label %81, label %100

81:                                               ; preds = %69
  br label %82

82:                                               ; preds = %81
  br label %83

83:                                               ; preds = %82
  br label %84

84:                                               ; preds = %83
  %85 = load i64, ptr @H5E_LIB_g, align 8, !tbaa !3
  %86 = load i64, ptr @H5E_CANTRESTORE_g, align 8, !tbaa !3
  %87 = call i32 (ptr, ptr, i32, i64, i64, ptr, ...) @H5E_printf_stack(ptr noundef @.str, ptr noundef @__func__.H5T__vlen_mem_seq_write, i32 noundef 508, i64 noundef %85, i64 noundef %86, ptr noundef @.str.21)
  br label %88

88:                                               ; preds = %84
  br label %89

89:                                               ; preds = %88
  store i8 1, ptr %18, align 1, !tbaa !10
  %90 = load i8, ptr %18, align 1, !tbaa !10, !range !12, !noundef !13
  %91 = trunc i8 %90 to i1
  %92 = zext i1 %91 to i8
  store i8 %92, ptr %18, align 1, !tbaa !10
  br label %93

93:                                               ; preds = %89
  br label %94

94:                                               ; preds = %93
  br label %95

95:                                               ; preds = %94
  store i32 -1, ptr %17, align 4, !tbaa !31
  store i32 10, ptr %21, align 4
  br label %101

96:                                               ; No predecessors!
  br label %97

97:                                               ; preds = %96
  br label %98

98:                                               ; preds = %97
  br label %99

99:                                               ; preds = %98
  br label %100

100:                                              ; preds = %99, %69
  store i32 0, ptr %21, align 4
  br label %101

101:                                              ; preds = %95, %64, %100
  call void @llvm.lifetime.end.p0(i64 24, ptr %20) #9
  %102 = load i32, ptr %21, align 4
  switch i32 %102, label %157 [
    i32 0, label %103
  ]

103:                                              ; preds = %101
  %104 = getelementptr inbounds nuw %struct.hvl_t, ptr %16, i32 0, i32 1
  %105 = load ptr, ptr %104, align 8, !tbaa !51
  %106 = icmp eq ptr null, %105
  br i1 %106, label %107, label %126

107:                                              ; preds = %103
  br label %108

108:                                              ; preds = %107
  br label %109

109:                                              ; preds = %108
  br label %110

110:                                              ; preds = %109
  %111 = load i64, ptr @H5E_DATATYPE_g, align 8, !tbaa !3
  %112 = load i64, ptr @H5E_CANTALLOC_g, align 8, !tbaa !3
  %113 = call i32 (ptr, ptr, i32, i64, i64, ptr, ...) @H5E_printf_stack(ptr noundef @.str, ptr noundef @__func__.H5T__vlen_mem_seq_write, i32 noundef 511, i64 noundef %111, i64 noundef %112, ptr noundef @.str.22)
  br label %114

114:                                              ; preds = %110
  br label %115

115:                                              ; preds = %114
  store i8 1, ptr %18, align 1, !tbaa !10
  %116 = load i8, ptr %18, align 1, !tbaa !10, !range !12, !noundef !13
  %117 = trunc i8 %116 to i1
  %118 = zext i1 %117 to i8
  store i8 %118, ptr %18, align 1, !tbaa !10
  br label %119

119:                                              ; preds = %115
  br label %120

120:                                              ; preds = %119
  br label %121

121:                                              ; preds = %120
  store i32 -1, ptr %17, align 4, !tbaa !31
  store i32 10, ptr %21, align 4
  br label %157

122:                                              ; No predecessors!
  br label %123

123:                                              ; preds = %122
  br label %124

124:                                              ; preds = %123
  br label %125

125:                                              ; preds = %124
  br label %126

126:                                              ; preds = %125, %103
  br label %152

127:                                              ; preds = %39
  %128 = load i64, ptr %19, align 8, !tbaa !3
  %129 = call noalias ptr @malloc(i64 noundef %128) #10
  %130 = getelementptr inbounds nuw %struct.hvl_t, ptr %16, i32 0, i32 1
  store ptr %129, ptr %130, align 8, !tbaa !51
  %131 = icmp eq ptr null, %129
  br i1 %131, label %132, label %151

132:                                              ; preds = %127
  br label %133

133:                                              ; preds = %132
  br label %134

134:                                              ; preds = %133
  br label %135

135:                                              ; preds = %134
  %136 = load i64, ptr @H5E_DATATYPE_g, align 8, !tbaa !3
  %137 = load i64, ptr @H5E_CANTALLOC_g, align 8, !tbaa !3
  %138 = call i32 (ptr, ptr, i32, i64, i64, ptr, ...) @H5E_printf_stack(ptr noundef @.str, ptr noundef @__func__.H5T__vlen_mem_seq_write, i32 noundef 515, i64 noundef %136, i64 noundef %137, ptr noundef @.str.23)
  br label %139

139:                                              ; preds = %135
  br label %140

140:                                              ; preds = %139
  store i8 1, ptr %18, align 1, !tbaa !10
  %141 = load i8, ptr %18, align 1, !tbaa !10, !range !12, !noundef !13
  %142 = trunc i8 %141 to i1
  %143 = zext i1 %142 to i8
  store i8 %143, ptr %18, align 1, !tbaa !10
  br label %144

144:                                              ; preds = %140
  br label %145

145:                                              ; preds = %144
  br label %146

146:                                              ; preds = %145
  store i32 -1, ptr %17, align 4, !tbaa !31
  store i32 10, ptr %21, align 4
  br label %157

147:                                              ; No predecessors!
  br label %148

148:                                              ; preds = %147
  br label %149

149:                                              ; preds = %148
  br label %150

150:                                              ; preds = %149
  br label %151

151:                                              ; preds = %150, %127
  br label %152

152:                                              ; preds = %151, %126
  %153 = getelementptr inbounds nuw %struct.hvl_t, ptr %16, i32 0, i32 1
  %154 = load ptr, ptr %153, align 8, !tbaa !51
  %155 = load ptr, ptr %12, align 8, !tbaa !38
  %156 = load i64, ptr %19, align 8, !tbaa !3
  call void @llvm.memcpy.p0.p0.i64(ptr align 1 %154, ptr align 1 %155, i64 %156, i1 false)
  store i32 0, ptr %21, align 4
  br label %157

157:                                              ; preds = %146, %121, %152, %101
  call void @llvm.lifetime.end.p0(i64 8, ptr %19) #9
  %158 = load i32, ptr %21, align 4
  switch i32 %158, label %169 [
    i32 0, label %159
    i32 10, label %166
  ]

159:                                              ; preds = %157
  br label %162

160:                                              ; preds = %36
  %161 = getelementptr inbounds nuw %struct.hvl_t, ptr %16, i32 0, i32 1
  store ptr null, ptr %161, align 8, !tbaa !51
  br label %162

162:                                              ; preds = %160, %159
  %163 = load i64, ptr %14, align 8, !tbaa !3
  %164 = getelementptr inbounds nuw %struct.hvl_t, ptr %16, i32 0, i32 0
  store i64 %163, ptr %164, align 8, !tbaa !49
  %165 = load ptr, ptr %11, align 8, !tbaa !38
  call void @llvm.memcpy.p0.p0.i64(ptr align 1 %165, ptr align 8 %16, i64 16, i1 false)
  br label %166

166:                                              ; preds = %162, %157
  br label %167

167:                                              ; preds = %166, %28
  %168 = load i32, ptr %17, align 4, !tbaa !31
  store i32 %168, ptr %8, align 4
  store i32 1, ptr %21, align 4
  br label %169

169:                                              ; preds = %167, %157
  call void @llvm.lifetime.end.p0(i64 1, ptr %18) #9
  call void @llvm.lifetime.end.p0(i64 4, ptr %17) #9
  call void @llvm.lifetime.end.p0(i64 16, ptr %16) #9
  %170 = load i32, ptr %8, align 4
  ret i32 %170
}