; Function Attrs: nounwind uwtable
define internal range(i32 -1, 1) i32 @H5T__vlen_mem_seq_write(ptr readnone captures(none) %0, ptr noundef readonly captures(none) %1, ptr noundef writeonly captures(none) %2, ptr noundef readonly captures(none) %3, ptr readnone captures(none) %4, i64 noundef %5, i64 noundef %6) #0 {
  %8 = alloca %struct.H5_user_cb_state_t, align 8
  %9 = load i8, ptr @H5T_init_g, align 1, !tbaa !3, !range !7, !noundef !8
  %10 = trunc nuw i8 %9 to i1
  %11 = load i8, ptr @H5_libterm_g, align 1, !range !7
  %12 = trunc nuw i8 %11 to i1
  %13 = xor i1 %12, true
  %14 = select i1 %10, i1 true, i1 %13
  br i1 %14, label %15, label %.thread33, !prof !9

15:                                               ; preds = %7
  %.not = icmp eq i64 %5, 0
  br i1 %.not, label %46, label %16

16:                                               ; preds = %15
  %17 = mul i64 %6, %5
  %18 = load ptr, ptr %1, align 8, !tbaa !54
  %.not26 = icmp eq ptr %18, null
  br i1 %.not26, label %38, label %19

19:                                               ; preds = %16
  call void @llvm.lifetime.start.p0(i64 24, ptr nonnull %8) #13
  %20 = call i32 @H5_user_cb_prepare(ptr noundef nonnull %8) #13
  %21 = icmp slt i32 %20, 0
  br i1 %21, label %.thread, label %22

22:                                               ; preds = %19
  %23 = load ptr, ptr %1, align 8, !tbaa !54
  %24 = getelementptr inbounds nuw i8, ptr %1, i64 8
  %25 = load ptr, ptr %24, align 8, !tbaa !55
  %26 = call ptr %23(i64 noundef %17, ptr noundef %25) #13
  %27 = call i32 @H5_user_cb_restore(ptr noundef nonnull %8) #13
  %28 = icmp slt i32 %27, 0
  br i1 %28, label %.thread, label %32

.thread:                                          ; preds = %22, %19
  %H5E_CANTSET_g.sink = phi ptr [ @H5E_CANTSET_g, %19 ], [ @H5E_CANTRESTORE_g, %22 ]
  %.sink = phi i32 [ 504, %19 ], [ 508, %22 ]
  %29 = load i64, ptr @H5E_LIB_g, align 8, !tbaa !11
  %30 = load i64, ptr %H5E_CANTSET_g.sink, align 8, !tbaa !11
  %31 = call i32 (ptr, ptr, i32, i64, i64, ptr, ...) @H5E_printf_stack(ptr noundef nonnull @.str, ptr noundef nonnull @__func__.H5T__vlen_mem_seq_write, i32 noundef %.sink, i64 noundef %29, i64 noundef %30, ptr noundef nonnull @.str.21) #13
  call void @llvm.lifetime.end.p0(i64 24, ptr nonnull %8) #13
  br label %.thread33

32:                                               ; preds = %22
  call void @llvm.lifetime.end.p0(i64 24, ptr nonnull %8) #13
  %33 = icmp eq ptr %26, null
  br i1 %33, label %34, label %45

34:                                               ; preds = %32
  %35 = load i64, ptr @H5E_DATATYPE_g, align 8, !tbaa !11
  %36 = load i64, ptr @H5E_CANTALLOC_g, align 8, !tbaa !11
  %37 = call i32 (ptr, ptr, i32, i64, i64, ptr, ...) @H5E_printf_stack(ptr noundef nonnull @.str, ptr noundef nonnull @__func__.H5T__vlen_mem_seq_write, i32 noundef 511, i64 noundef %35, i64 noundef %36, ptr noundef nonnull @.str.22) #13
  br label %.thread33

38:                                               ; preds = %16
  %39 = tail call noalias ptr @malloc(i64 noundef %17) #14
  %40 = icmp eq ptr %39, null
  br i1 %40, label %41, label %45

41:                                               ; preds = %38
  %42 = load i64, ptr @H5E_DATATYPE_g, align 8, !tbaa !11
  %43 = load i64, ptr @H5E_CANTALLOC_g, align 8, !tbaa !11
  %44 = tail call i32 (ptr, ptr, i32, i64, i64, ptr, ...) @H5E_printf_stack(ptr noundef nonnull @.str, ptr noundef nonnull @__func__.H5T__vlen_mem_seq_write, i32 noundef 515, i64 noundef %42, i64 noundef %43, ptr noundef nonnull @.str.23) #13
  br label %.thread33

45:                                               ; preds = %32, %38
  %.sroa.4.2 = phi ptr [ %26, %32 ], [ %39, %38 ]
  call void @llvm.memcpy.p0.p0.i64(ptr nonnull align 1 %.sroa.4.2, ptr align 1 %3, i64 %17, i1 false)
  br label %46

46:                                               ; preds = %45, %15
  %.sroa.4.3 = phi ptr [ %.sroa.4.2, %45 ], [ null, %15 ]
  store i64 %5, ptr %2, align 1
  %.sroa.4.0..sroa_idx = getelementptr inbounds nuw i8, ptr %2, i64 8
  store ptr %.sroa.4.3, ptr %.sroa.4.0..sroa_idx, align 1
  br label %.thread33

.thread33:                                        ; preds = %.thread, %41, %34, %7, %46
  %.020 = phi i32 [ 0, %46 ], [ 0, %7 ], [ -1, %34 ], [ -1, %41 ], [ -1, %.thread ]
  ret i32 %.020
}